target datalayout = "e-m:e-p270:32:32-p271:32:32-p272:64:64-i64:64-i128:128-f80:128-n8:16:32:64-S128"
target triple = "x86_64-pc-linux-gnu"

%struct.stmm_table = type { ptr, ptr, i32, i32, i32, i32, double, ptr, ptr }

; Function Attrs: nounwind uwtable
define void @stmm_clean(ptr noundef %0) #0 {
  %2 = alloca ptr, align 8
  %3 = alloca i32, align 4
  store ptr %0, ptr %2, align 8
  store i32 0, ptr %3, align 4
  br label %4

4:                                                ; preds = %17, %1
  %5 = load i32, ptr %3, align 4
  %6 = load ptr, ptr %2, align 8
  %7 = getelementptr inbounds %struct.stmm_table, ptr %6, i32 0, i32 2
  %8 = load i32, ptr %7, align 8
  %9 = icmp slt i32 %5, %8
  br i1 %9, label %10, label %20

10:                                               ; preds = %4
  %11 = load ptr, ptr %2, align 8
  %12 = getelementptr inbounds %struct.stmm_table, ptr %11, i32 0, i32 7
  %13 = load ptr, ptr %12, align 8
  %14 = load i32, ptr %3, align 4
  %15 = sext i32 %14 to i64
  %16 = getelementptr inbounds ptr, ptr %13, i64 %15
  store ptr null, ptr %16, align 8
  br label %17

17:                                               ; preds = %10
  %18 = load i32, ptr %3, align 4
  %19 = add nsw i32 %18, 1
  store i32 %19, ptr %3, align 4
  br label %4, !llvm.loop !6

20:                                               ; preds = %4
  %21 = load ptr, ptr %2, align 8
  %22 = getelementptr inbounds %struct.stmm_table, ptr %21, i32 0, i32 3
  store i32 0, ptr %22, align 4
  %23 = load ptr, ptr %2, align 8
  %24 = getelementptr inbounds %struct.stmm_table, ptr %23, i32 0, i32 8
  %25 = load ptr, ptr %24, align 8
  call void @Extra_MmFixedRestart(ptr noundef %25)
  ret void
}